target datalayout = "e-m:e-p270:32:32-p271:32:32-p272:64:64-i64:64-i128:128-f80:128-n8:16:32:64-S128"
target triple = "x86_64-pc-linux-gnu"

@.str = private unnamed_addr constant [4 x i8] c"rgb\00", align 1
@.str.1 = private unnamed_addr constant [4 x i8] c"lab\00", align 1
@.str.2 = private unnamed_addr constant [5 x i8] c"gray\00", align 1
@.str.3 = private unnamed_addr constant [14 x i8] c"#%02X%02X%02X\00", align 1

; Function Attrs: nounwind uwtable
define ptr @color_palettes_get(ptr noundef %0) #0 {
  %2 = alloca ptr, align 8
  %3 = alloca ptr, align 8
  %4 = alloca i32, align 4
  %5 = alloca i32, align 4
  store ptr %0, ptr %3, align 8, !tbaa !3
  call void @llvm.lifetime.start.p0(i64 4, ptr %4) #5
  store i32 0, ptr %4, align 4, !tbaa !8
  br label %6

6:                                                ; preds = %25, %1
  %7 = load i32, ptr %4, align 4, !tbaa !8
  %8 = icmp slt i32 %7, 265
  br i1 %8, label %9, label %28

9:                                                ; preds = %6
  %10 = load ptr, ptr %3, align 8, !tbaa !3
  %11 = load i32, ptr %4, align 4, !tbaa !8
  %12 = sext i32 %11 to i64
  %13 = getelementptr inbounds [265 x [2 x ptr]], ptr @color_palettes, i64 0, i64 %12
  %14 = getelementptr inbounds [2 x ptr], ptr %13, i64 0, i64 0
  %15 = load ptr, ptr %14, align 16, !tbaa !3
  %16 = call i32 @strcmp(ptr noundef %10, ptr noundef %15) #6
  %17 = icmp eq i32 %16, 0
  br i1 %17, label %18, label %24

18:                                               ; preds = %9
  %19 = load i32, ptr %4, align 4, !tbaa !8
  %20 = sext i32 %19 to i64
  %21 = getelementptr inbounds [265 x [2 x ptr]], ptr @color_palettes, i64 0, i64 %20
  %22 = getelementptr inbounds [2 x ptr], ptr %21, i64 0, i64 1
  %23 = load ptr, ptr %22, align 8, !tbaa !3
  store ptr %23, ptr %2, align 8
  store i32 1, ptr %5, align 4
  br label %29

24:                                               ; preds = %9
  br label %25

25:                                               ; preds = %24
  %26 = load i32, ptr %4, align 4, !tbaa !8
  %27 = add nsw i32 %26, 1
  store i32 %27, ptr %4, align 4, !tbaa !8
  br label %6, !llvm.loop !10

28:                                               ; preds = %6
  store ptr null, ptr %2, align 8
  store i32 1, ptr %5, align 4
  br label %29

29:                                               ; preds = %28, %18
  call void @llvm.lifetime.end.p0(i64 4, ptr %4) #5
  %30 = load ptr, ptr %2, align 8
  ret ptr %30
}

; Function Attrs: nounwind uwtable
define internal zeroext i1 @color_palettes_Q(ptr noundef %0) #0 {
  %2 = alloca ptr, align 8
  store ptr %0, ptr %2, align 8, !tbaa !3
  %3 = load ptr, ptr %2, align 8, !tbaa !3
  %4 = call ptr @color_palettes_get(ptr noundef %3)
  %5 = icmp ne ptr %4, null
  ret i1 %5
}

; Function Attrs: inlinehint nounwind uwtable
define internal zeroext i1 @streq(ptr noundef %0, ptr noundef %1) #3 {
  %3 = alloca ptr, align 8
  %4 = alloca ptr, align 8
  store ptr %0, ptr %3, align 8, !tbaa !3
  store ptr %1, ptr %4, align 8, !tbaa !3
  %5 = load ptr, ptr %3, align 8, !tbaa !3
  %6 = load ptr, ptr %4, align 8, !tbaa !3
  %7 = call i32 @strcmp(ptr noundef %5, ptr noundef %6) #6
  %8 = icmp eq i32 %7, 0
  ret i1 %8
}

; Function Attrs: nounwind uwtable
define zeroext i1 @knownColorScheme(ptr noundef %0) #0 {
  %2 = alloca ptr, align 8
  %3 = alloca i32, align 4
  %4 = alloca i32, align 4
  %5 = alloca i32, align 4
  store ptr %0, ptr %2, align 8, !tbaa !3
  call void @llvm.lifetime.start.p0(i64 4, ptr %3) #5
  call void @llvm.lifetime.start.p0(i64 4, ptr %4) #5
  call void @llvm.lifetime.start.p0(i64 4, ptr %5) #5
  %6 = load ptr, ptr %2, align 8, !tbaa !3
  %7 = call zeroext i1 @streq(ptr noundef %6, ptr noundef @.str)
  br i1 %7, label %21, label %8

8:                                                ; preds = %1
  %9 = load ptr, ptr %2, align 8, !tbaa !3
  %10 = call zeroext i1 @streq(ptr noundef %9, ptr noundef @.str.1)
  br i1 %10, label %21, label %11

11:                                               ; preds = %8
  %12 = load ptr, ptr %2, align 8, !tbaa !3
  %13 = call zeroext i1 @streq(ptr noundef %12, ptr noundef @.str.2)
  br i1 %13, label %21, label %14

14:                                               ; preds = %11
  %15 = load ptr, ptr %2, align 8, !tbaa !3
  %16 = call zeroext i1 @color_palettes_Q(ptr noundef %15)
  br i1 %16, label %21, label %17

17:                                               ; preds = %14
  %18 = load ptr, ptr %2, align 8, !tbaa !3
  %19 = call i32 (ptr, ptr, ...) @__isoc99_sscanf(ptr noundef %18, ptr noundef @.str.3, ptr noundef %3, ptr noundef %4, ptr noundef %5) #5
  %20 = icmp eq i32 %19, 3
  br label %21

21:                                               ; preds = %17, %14, %11, %8, %1
  %22 = phi i1 [ true, %14 ], [ true, %11 ], [ true, %8 ], [ true, %1 ], [ %20, %17 ]
  call void @llvm.lifetime.end.p0(i64 4, ptr %5) #5
  call void @llvm.lifetime.end.p0(i64 4, ptr %4) #5
  call void @llvm.lifetime.end.p0(i64 4, ptr %3) #5
  ret i1 %22
}