; Function Attrs: nofree nounwind uwtable
define noundef zeroext i1 @knownColorScheme(ptr noundef readonly captures(none) %0) local_unnamed_addr #3 {
  %2 = alloca i32, align 4
  %3 = alloca i32, align 4
  %4 = alloca i32, align 4
  call void @llvm.lifetime.start.p0(i64 4, ptr nonnull %2) #6
  call void @llvm.lifetime.start.p0(i64 4, ptr nonnull %3) #6
  call void @llvm.lifetime.start.p0(i64 4, ptr nonnull %4) #6
  %5 = tail call i32 @strcmp(ptr noundef nonnull readonly dereferenceable(1) %0, ptr noundef nonnull dereferenceable(4) @.str) #5
  %6 = icmp eq i32 %5, 0
  br i1 %6, label %22, label %7

7:                                                ; preds = %1
  %8 = tail call i32 @strcmp(ptr noundef nonnull readonly dereferenceable(1) %0, ptr noundef nonnull dereferenceable(4) @.str.1) #5
  %9 = icmp eq i32 %8, 0
  br i1 %9, label %22, label %10

10:                                               ; preds = %7
  %11 = tail call i32 @strcmp(ptr noundef nonnull readonly dereferenceable(1) %0, ptr noundef nonnull dereferenceable(5) @.str.2) #5
  %12 = icmp eq i32 %11, 0
  br i1 %12, label %22, label %.preheader

13:                                               ; preds = %.preheader
  %indvars.iv.next.i.i = add nuw nsw i64 %indvars.iv.i.i, 1
  %exitcond.not.i.i = icmp eq i64 %indvars.iv.next.i.i, 265
  br i1 %exitcond.not.i.i, label %color_palettes_Q.exit.thread, label %.preheader, !llvm.loop !3

.preheader:                                       ; preds = %10, %13
  %indvars.iv.i.i = phi i64 [ %indvars.iv.next.i.i, %13 ], [ 0, %10 ]
  %14 = getelementptr inbounds nuw [265 x [2 x ptr]], ptr @color_palettes, i64 0, i64 %indvars.iv.i.i
  %15 = load ptr, ptr %14, align 16, !tbaa !5
  %16 = tail call i32 @strcmp(ptr noundef nonnull readonly dereferenceable(1) %0, ptr noundef nonnull dereferenceable(1) %15) #5
  %17 = icmp eq i32 %16, 0
  br i1 %17, label %color_palettes_Q.exit, label %13

color_palettes_Q.exit:                            ; preds = %.preheader
  %18 = getelementptr inbounds nuw i8, ptr %14, i64 8
  %19 = load ptr, ptr %18, align 8, !tbaa !5
  %.not = icmp eq ptr %19, null
  br i1 %.not, label %color_palettes_Q.exit.thread, label %22

color_palettes_Q.exit.thread:                     ; preds = %13, %color_palettes_Q.exit
  %20 = call i32 (ptr, ptr, ...) @__isoc99_sscanf(ptr noundef nonnull %0, ptr noundef nonnull @.str.3, ptr noundef nonnull %2, ptr noundef nonnull %3, ptr noundef nonnull %4) #6
  %21 = icmp eq i32 %20, 3
  br label %22

22:                                               ; preds = %color_palettes_Q.exit.thread, %color_palettes_Q.exit, %10, %7, %1
  %23 = phi i1 [ true, %color_palettes_Q.exit ], [ true, %10 ], [ true, %7 ], [ true, %1 ], [ %21, %color_palettes_Q.exit.thread ]
  call void @llvm.lifetime.end.p0(i64 4, ptr nonnull %4) #6
  call void @llvm.lifetime.end.p0(i64 4, ptr nonnull %3) #6
  call void @llvm.lifetime.end.p0(i64 4, ptr nonnull %2) #6
  ret i1 %23
}